target datalayout = "e-m:e-p270:32:32-p271:32:32-p272:64:64-i64:64-i128:128-f80:128-n8:16:32:64-S128"
target triple = "x86_64-pc-linux-gnu"

@trace2_enabled = internal global i32 0, align 4
@.str.1 = private unnamed_addr constant [9 x i8] c"trace2.c\00", align 1
@.str.7 = private unnamed_addr constant [43 x i8] c"trace2_counter_add: invalid counter id: %d\00", align 1

; Function Attrs: nounwind uwtable
define dso_local void @trace2_counter_add(i32 noundef %0, i64 noundef %1) #0 {
  %3 = alloca i32, align 4
  %4 = alloca i64, align 8
  store i32 %0, ptr %3, align 4, !tbaa !9
  store i64 %1, ptr %4, align 8, !tbaa !21
  %5 = load i32, ptr @trace2_enabled, align 4, !tbaa !9
  %6 = icmp ne i32 %5, 0
  br i1 %6, label %8, label %7

7:                                                ; preds = %2
  br label %19

8:                                                ; preds = %2
  %9 = load i32, ptr %3, align 4, !tbaa !9
  %10 = icmp ult i32 %9, 0
  br i1 %10, label %14, label %11

11:                                               ; preds = %8
  %12 = load i32, ptr %3, align 4, !tbaa !9
  %13 = icmp uge i32 %12, 6
  br i1 %13, label %14, label %16

14:                                               ; preds = %11, %8
  %15 = load i32, ptr %3, align 4, !tbaa !9
  call void (ptr, i32, ptr, ...) @BUG_fl(ptr noundef @.str.1, i32 noundef 1036, ptr noundef @.str.7, i32 noundef %15) #11
  unreachable

16:                                               ; preds = %11
  %17 = load i32, ptr %3, align 4, !tbaa !9
  %18 = load i64, ptr %4, align 8, !tbaa !21
  call void @tr2_counter_increment(i32 noundef %17, i64 noundef %18)
  br label %19

19:                                               ; preds = %16, %7
  ret void
}