; Function Attrs: nounwind uwtable
define dso_local void @trace2_counter_add(i32 noundef %0, i64 noundef %1) local_unnamed_addr #0 {
  %.b = load i1, ptr @trace2_enabled, align 4
  br i1 %.b, label %3, label %7

3:                                                ; preds = %2
  %4 = icmp ugt i32 %0, 5
  br i1 %4, label %5, label %6

5:                                                ; preds = %3
  tail call void (ptr, i32, ptr, ...) @BUG_fl(ptr noundef nonnull @.str.1, i32 noundef 1036, ptr noundef nonnull @.str.7, i32 noundef %0) #13
  unreachable

6:                                                ; preds = %3
  tail call void @tr2_counter_increment(i32 noundef %0, i64 noundef %1) #11
  br label %7

7:                                                ; preds = %2, %6
  ret void
}